; Function Attrs: mustprogress nofree norecurse nosync nounwind willreturn memory(argmem: read) uwtable
define { ptr, i32 } @_ZN6google8protobuf8internal16ReadSizeFallbackEPKcj(ptr noundef %p, i32 noundef %res) local_unnamed_addr #3 {
entry:
  br label %for.body

for.cond:                                         ; preds = %for.body
  %indvars.iv.next = add nuw nsw i64 %indvars.iv, 1
  %exitcond.not = icmp eq i64 %indvars.iv.next, 4
  br i1 %exitcond.not, label %for.end, label %for.body, !llvm.loop !7

for.body:                                         ; preds = %entry, %for.cond
  %indvars.iv = phi i64 [ 1, %entry ], [ %indvars.iv.next, %for.cond ]
  %res.addr.018 = phi i32 [ %res, %entry ], [ %add, %for.cond ]
  %arrayidx = getelementptr inbounds nuw i8, ptr %p, i64 %indvars.iv
  %0 = load i8, ptr %arrayidx, align 1
  %conv = zext i8 %0 to i32
  %sub = add nsw i32 %conv, -1
  %1 = trunc i64 %indvars.iv to i32
  %2 = mul i32 %1, 7
  %shl = shl nsw i32 %sub, %2
  %add = add i32 %shl, %res.addr.018
  %cmp1 = icmp sgt i8 %0, -1
  br i1 %cmp1, label %if.then, label %for.cond

if.then:                                          ; preds = %for.body
  %arrayidx.le = getelementptr inbounds nuw i8, ptr %p, i64 %indvars.iv
  %add.ptr3 = getelementptr inbounds nuw i8, ptr %arrayidx.le, i64 1
  br label %return

for.end:                                          ; preds = %for.cond
  %arrayidx5 = getelementptr inbounds nuw i8, ptr %p, i64 4
  %3 = load i8, ptr %arrayidx5, align 1
  %cmp7 = icmp ugt i8 %3, 7
  br i1 %cmp7, label %return, label %if.end12

if.end12:                                         ; preds = %for.end
  %conv6 = zext nneg i8 %3 to i32
  %sub13 = shl nuw nsw i32 %conv6, 28
  %shl14 = add i32 %add, -268435456
  %add15 = add i32 %shl14, %sub13
  %cmp16 = icmp ugt i32 %add15, 2147483631
  %add.ptr23 = getelementptr inbounds nuw i8, ptr %p, i64 5
  %spec.select = select i1 %cmp16, ptr null, ptr %add.ptr23
  %spec.select16 = select i1 %cmp16, i32 0, i32 %add15
  br label %return

return:                                           ; preds = %if.end12, %for.end, %if.then
  %retval.sroa.0.0 = phi ptr [ %add.ptr3, %if.then ], [ null, %for.end ], [ %spec.select, %if.end12 ]
  %retval.sroa.5.0 = phi i32 [ %add, %if.then ], [ 0, %for.end ], [ %spec.select16, %if.end12 ]
  %.fca.0.insert = insertvalue { ptr, i32 } poison, ptr %retval.sroa.0.0, 0
  %.fca.1.insert = insertvalue { ptr, i32 } %.fca.0.insert, i32 %retval.sroa.5.0, 1
  ret { ptr, i32 } %.fca.1.insert
}